; Function Attrs: mustprogress nofree norecurse nosync nounwind sspstrong willreturn memory(readwrite, inaccessiblemem: none) uwtable
define internal noundef i64 @rb_thread_s_ignore_deadlock_set(i64 %0, i64 noundef returned %1) #27 {
  %3 = and i64 %1, -5
  %.not = icmp eq i64 %3, 0
  %4 = tail call align 8 ptr @llvm.threadlocal.address.p0(ptr align 8 @ruby_current_ec)
  %5 = load ptr, ptr %4, align 8, !tbaa !148
  %6 = getelementptr i8, ptr %5, i64 48
  %.val.i = load ptr, ptr %6, align 8, !tbaa !7
  %7 = getelementptr inbounds nuw i8, ptr %.val.i, i64 32
  %8 = load ptr, ptr %7, align 8, !tbaa !53
  %9 = getelementptr inbounds nuw i8, ptr %8, i64 508
  %10 = load i8, ptr %9, align 4
  %11 = select i1 %.not, i8 0, i8 8
  %12 = and i8 %10, -9
  %13 = or disjoint i8 %12, %11
  store i8 %13, ptr %9, align 4
  ret i64 %1
}